target datalayout = "e-m:e-p270:32:32-p271:32:32-p272:64:64-i64:64-i128:128-f80:128-n8:16:32:64-S128"
target triple = "x86_64-pc-linux-gnu"

%struct.H5VL_blob_specific_args_t = type { i32, %union.anon.13 }
%union.anon.13 = type { %struct.anon.14 }
%struct.anon.14 = type { ptr }

@H5T_init_g = external global i8, align 1
@H5_libterm_g = external global i8, align 1
@.str = private unnamed_addr constant [100 x i8] c"generated/home/dtcxzyw/WorkSpace/Projects/compilers/llvm-opt-benchmark/bench/hdf5/hdf5/src/H5Tref.c\00", align 1
@H5E_DATATYPE_g = external global i64, align 8
@H5E_CANTGET_g = external global i64, align 8
@__func__.H5T__ref_disk_isnull = private unnamed_addr constant [21 x i8] c"H5T__ref_disk_isnull\00", align 1
@.str.25 = private unnamed_addr constant [38 x i8] c"unable to check if a blob ID is 'nil'\00", align 1

; Function Attrs: nounwind uwtable
define internal i32 @H5T__ref_disk_isnull(ptr noundef %0, ptr noundef %1, ptr noundef %2) #0 {
  %4 = alloca i32, align 4
  %5 = alloca ptr, align 8
  %6 = alloca ptr, align 8
  %7 = alloca ptr, align 8
  %8 = alloca ptr, align 8
  %9 = alloca i32, align 4
  %10 = alloca i32, align 4
  %11 = alloca i8, align 1
  %12 = alloca %struct.H5VL_blob_specific_args_t, align 8
  %13 = alloca i32, align 4
  store ptr %0, ptr %5, align 8, !tbaa !8
  store ptr %1, ptr %6, align 8, !tbaa !39
  store ptr %2, ptr %7, align 8, !tbaa !40
  call void @llvm.lifetime.start.p0(i64 8, ptr %8) #8
  %14 = load ptr, ptr %6, align 8, !tbaa !39
  store ptr %14, ptr %8, align 8, !tbaa !44
  call void @llvm.lifetime.start.p0(i64 4, ptr %9) #8
  call void @llvm.lifetime.start.p0(i64 4, ptr %10) #8
  store i32 0, ptr %10, align 4, !tbaa !10
  call void @llvm.lifetime.start.p0(i64 1, ptr %11) #8
  store i8 0, ptr %11, align 1, !tbaa !12
  %15 = load i8, ptr @H5T_init_g, align 1, !tbaa !12, !range !14, !noundef !15
  %16 = trunc i8 %15 to i1
  br i1 %16, label %21, label %17

17:                                               ; preds = %3
  %18 = load i8, ptr @H5_libterm_g, align 1, !tbaa !12, !range !14, !noundef !15
  %19 = trunc i8 %18 to i1
  %20 = xor i1 %19, true
  br label %21

21:                                               ; preds = %17, %3
  %22 = phi i1 [ true, %3 ], [ %20, %17 ]
  %23 = xor i1 %22, true
  %24 = xor i1 %23, true
  %25 = zext i1 %24 to i32
  %26 = sext i32 %25 to i64
  %27 = call i64 @llvm.expect.i64(i64 %26, i64 1)
  %28 = icmp ne i64 %27, 0
  br i1 %28, label %29, label %78

29:                                               ; preds = %21
  br label %30

30:                                               ; preds = %29
  br label %31

31:                                               ; preds = %30
  br label %32

32:                                               ; preds = %31
  %33 = load ptr, ptr %8, align 8, !tbaa !44
  %34 = getelementptr inbounds nuw i8, ptr %33, i32 1
  store ptr %34, ptr %8, align 8, !tbaa !44
  %35 = load i8, ptr %33, align 1, !tbaa !25
  %36 = zext i8 %35 to i32
  store i32 %36, ptr %9, align 4, !tbaa !10
  %37 = load i32, ptr %9, align 4, !tbaa !10
  %38 = icmp ne i32 %37, 0
  br i1 %38, label %39, label %41

39:                                               ; preds = %32
  %40 = load ptr, ptr %7, align 8, !tbaa !40
  store i8 0, ptr %40, align 1, !tbaa !12
  br label %76

41:                                               ; preds = %32
  call void @llvm.lifetime.start.p0(i64 16, ptr %12) #8
  %42 = load ptr, ptr %6, align 8, !tbaa !39
  %43 = getelementptr inbounds nuw i8, ptr %42, i64 2
  %44 = getelementptr inbounds nuw i8, ptr %43, i64 4
  store ptr %44, ptr %8, align 8, !tbaa !44
  %45 = getelementptr inbounds nuw %struct.H5VL_blob_specific_args_t, ptr %12, i32 0, i32 0
  store i32 1, ptr %45, align 8, !tbaa !54
  %46 = load ptr, ptr %7, align 8, !tbaa !40
  %47 = getelementptr inbounds nuw %struct.H5VL_blob_specific_args_t, ptr %12, i32 0, i32 1
  %48 = getelementptr inbounds nuw %struct.anon.14, ptr %47, i32 0, i32 0
  store ptr %46, ptr %48, align 8, !tbaa !25
  %49 = load ptr, ptr %5, align 8, !tbaa !8
  %50 = load ptr, ptr %8, align 8, !tbaa !44
  %51 = call i32 @H5VL_blob_specific(ptr noundef %49, ptr noundef %50, ptr noundef %12)
  %52 = icmp slt i32 %51, 0
  br i1 %52, label %53, label %72

53:                                               ; preds = %41
  br label %54

54:                                               ; preds = %53
  br label %55

55:                                               ; preds = %54
  br label %56

56:                                               ; preds = %55
  %57 = load i64, ptr @H5E_DATATYPE_g, align 8, !tbaa !28
  %58 = load i64, ptr @H5E_CANTGET_g, align 8, !tbaa !28
  %59 = call i32 (ptr, ptr, i32, i64, i64, ptr, ...) @H5E_printf_stack(ptr noundef @.str, ptr noundef @__func__.H5T__ref_disk_isnull, i32 noundef 797, i64 noundef %57, i64 noundef %58, ptr noundef @.str.25)
  br label %60

60:                                               ; preds = %56
  br label %61

61:                                               ; preds = %60
  store i8 1, ptr %11, align 1, !tbaa !12
  %62 = load i8, ptr %11, align 1, !tbaa !12, !range !14, !noundef !15
  %63 = trunc i8 %62 to i1
  %64 = zext i1 %63 to i8
  store i8 %64, ptr %11, align 1, !tbaa !12
  br label %65

65:                                               ; preds = %61
  br label %66

66:                                               ; preds = %65
  br label %67

67:                                               ; preds = %66
  store i32 -1, ptr %10, align 4, !tbaa !10
  store i32 12, ptr %13, align 4
  br label %73

68:                                               ; No predecessors!
  br label %69

69:                                               ; preds = %68
  br label %70

70:                                               ; preds = %69
  br label %71

71:                                               ; preds = %70
  br label %72

72:                                               ; preds = %71, %41
  store i32 0, ptr %13, align 4
  br label %73

73:                                               ; preds = %67, %72
  call void @llvm.lifetime.end.p0(i64 16, ptr %12) #8
  %74 = load i32, ptr %13, align 4
  switch i32 %74, label %80 [
    i32 0, label %75
    i32 12, label %77
  ]

75:                                               ; preds = %73
  br label %76

76:                                               ; preds = %75, %39
  br label %77

77:                                               ; preds = %76, %73
  br label %78

78:                                               ; preds = %77, %21
  %79 = load i32, ptr %10, align 4, !tbaa !10
  store i32 %79, ptr %4, align 4
  store i32 1, ptr %13, align 4
  br label %80

80:                                               ; preds = %78, %73
  call void @llvm.lifetime.end.p0(i64 1, ptr %11) #8
  call void @llvm.lifetime.end.p0(i64 4, ptr %10) #8
  call void @llvm.lifetime.end.p0(i64 4, ptr %9) #8
  call void @llvm.lifetime.end.p0(i64 8, ptr %8) #8
  %81 = load i32, ptr %4, align 4
  ret i32 %81
}