; Function Attrs: nounwind uwtable
define internal range(i32 -1, 1) i32 @H5T__ref_disk_isnull(ptr noundef %0, ptr noundef %1, ptr noundef %2) #0 {
  %4 = alloca %struct.H5VL_blob_specific_args_t, align 8
  %5 = load i8, ptr @H5T_init_g, align 1, !tbaa !3, !range !7, !noundef !8
  %6 = trunc nuw i8 %5 to i1
  %7 = load i8, ptr @H5_libterm_g, align 1, !range !7
  %8 = trunc nuw i8 %7 to i1
  %9 = xor i1 %8, true
  %10 = select i1 %6, i1 true, i1 %9
  br i1 %10, label %11, label %24, !prof !9

11:                                               ; preds = %3
  %12 = load i8, ptr %1, align 1, !tbaa !22
  %.not = icmp eq i8 %12, 0
  br i1 %.not, label %14, label %13

13:                                               ; preds = %11
  store i8 0, ptr %2, align 1, !tbaa !3
  br label %24

14:                                               ; preds = %11
  call void @llvm.lifetime.start.p0(i64 16, ptr nonnull %4) #11
  %15 = getelementptr inbounds nuw i8, ptr %1, i64 6
  store i32 1, ptr %4, align 8, !tbaa !44
  %16 = getelementptr inbounds nuw i8, ptr %4, i64 8
  store ptr %2, ptr %16, align 8, !tbaa !22
  %17 = call i32 @H5VL_blob_specific(ptr noundef %0, ptr noundef nonnull %15, ptr noundef nonnull %4) #11
  %18 = icmp slt i32 %17, 0
  br i1 %18, label %19, label %23

19:                                               ; preds = %14
  %20 = load i64, ptr @H5E_DATATYPE_g, align 8, !tbaa !26
  %21 = load i64, ptr @H5E_CANTGET_g, align 8, !tbaa !26
  %22 = call i32 (ptr, ptr, i32, i64, i64, ptr, ...) @H5E_printf_stack(ptr noundef nonnull @.str, ptr noundef nonnull @__func__.H5T__ref_disk_isnull, i32 noundef 797, i64 noundef %20, i64 noundef %21, ptr noundef nonnull @.str.25) #11
  br label %23

23:                                               ; preds = %14, %19
  %.1 = phi i32 [ -1, %19 ], [ 0, %14 ]
  call void @llvm.lifetime.end.p0(i64 16, ptr nonnull %4) #11
  br label %24

24:                                               ; preds = %23, %3, %13
  %.012 = phi i32 [ 0, %13 ], [ %.1, %23 ], [ 0, %3 ]
  ret i32 %.012
}